; ModuleID = '58/280.c'
source_filename = "58/280.c"
target datalayout = "e-m:e-p270:32:32-p271:32:32-p272:64:64-i64:64-f80:128-n8:16:32:64-S128"
target triple = "x86_64-pc-linux-gnu"

@.str = private unnamed_addr constant [3 x i8] c"%d\00", align 1
@.str.1 = private unnamed_addr constant [3 x i8] c"1\0A\00", align 1
@.str.2 = private unnamed_addr constant [3 x i8] c"0\0A\00", align 1

; Function Attrs: noinline nounwind uwtable
define dso_local i32 @panduan(i8 signext %0, i32 %1) #0 {
  %3 = alloca i32, align 4
  %4 = alloca i8, align 1
  %5 = alloca i32, align 4
  store i8 %0, i8* %4, align 1
  store i32 %1, i32* %5, align 4
  %6 = load i8, i8* %4, align 1
  %7 = sext i8 %6 to i32
  %8 = icmp sge i32 %7, 97
  br i1 %8, label %9, label %13

9:                                                ; preds = %2
  %10 = load i8, i8* %4, align 1
  %11 = sext i8 %10 to i32
  %12 = icmp sle i32 %11, 122
  br i1 %12, label %33, label %13

13:                                               ; preds = %9, %2
  %14 = load i8, i8* %4, align 1
  %15 = sext i8 %14 to i32
  %16 = icmp sge i32 %15, 65
  br i1 %16, label %17, label %21

17:                                               ; preds = %13
  %18 = load i8, i8* %4, align 1
  %19 = sext i8 %18 to i32
  %20 = icmp sle i32 %19, 90
  br i1 %20, label %33, label %21

21:                                               ; preds = %17, %13
  %22 = load i8, i8* %4, align 1
  %23 = sext i8 %22 to i32
  %24 = icmp sge i32 %23, 48
  br i1 %24, label %25, label %29

25:                                               ; preds = %21
  %26 = load i8, i8* %4, align 1
  %27 = sext i8 %26 to i32
  %28 = icmp sle i32 %27, 57
  br i1 %28, label %33, label %29

29:                                               ; preds = %25, %21
  %30 = load i8, i8* %4, align 1
  %31 = sext i8 %30 to i32
  %32 = icmp eq i32 %31, 95
  br i1 %32, label %33, label %35

33:                                               ; preds = %29, %25, %17, %9
  %34 = load i32, i32* %5, align 4
  store i32 %34, i32* %3, align 4
  br label %36

35:                                               ; preds = %29
  store i32 0, i32* %3, align 4
  br label %36

36:                                               ; preds = %35, %33
  %37 = load i32, i32* %3, align 4
  ret i32 %37
}

; Function Attrs: noinline nounwind uwtable
define dso_local i32 @main() #0 {
  %1 = alloca i32, align 4
  %2 = alloca i32, align 4
  %3 = alloca i32, align 4
  %4 = alloca i32, align 4
  %5 = alloca [100 x i8], align 16
  %6 = alloca i32, align 4
  store i32 0, i32* %1, align 4
  %7 = call i32 (i8*, ...) @__isoc99_scanf(i8* getelementptr inbounds ([3 x i8], [3 x i8]* @.str, i64 0, i64 0), i32* %2)
  store i32 0, i32* %3, align 4
  store i32 1, i32* %4, align 4
  store i32 0, i32* %3, align 4
  br label %8

8:                                                ; preds = %72, %0
  %9 = load i32, i32* %3, align 4
  %10 = load i32, i32* %2, align 4
  %11 = icmp sle i32 %9, %10
  br i1 %11, label %12, label %75

12:                                               ; preds = %8
  %13 = getelementptr inbounds [100 x i8], [100 x i8]* %5, i64 0, i64 0
  %14 = call i32 (i8*, ...) bitcast (i32 (...)* @gets to i32 (i8*, ...)*)(i8* %13)
  %15 = load i32, i32* %3, align 4
  %16 = icmp eq i32 %15, 0
  br i1 %16, label %17, label %18

17:                                               ; preds = %12
  br label %72

18:                                               ; preds = %12
  %19 = getelementptr inbounds [100 x i8], [100 x i8]* %5, i64 0, i64 0
  %20 = load i8, i8* %19, align 16
  %21 = sext i8 %20 to i32
  %22 = icmp sge i32 %21, 97
  br i1 %22, label %23, label %28

23:                                               ; preds = %18
  %24 = getelementptr inbounds [100 x i8], [100 x i8]* %5, i64 0, i64 0
  %25 = load i8, i8* %24, align 16
  %26 = sext i8 %25 to i32
  %27 = icmp sle i32 %26, 122
  br i1 %27, label %43, label %28

28:                                               ; preds = %23, %18
  %29 = getelementptr inbounds [100 x i8], [100 x i8]* %5, i64 0, i64 0
  %30 = load i8, i8* %29, align 16
  %31 = sext i8 %30 to i32
  %32 = icmp sge i32 %31, 65
  br i1 %32, label %33, label %38

33:                                               ; preds = %28
  %34 = getelementptr inbounds [100 x i8], [100 x i8]* %5, i64 0, i64 0
  %35 = load i8, i8* %34, align 16
  %36 = sext i8 %35 to i32
  %37 = icmp sle i32 %36, 90
  br i1 %37, label %43, label %38

38:                                               ; preds = %33, %28
  %39 = getelementptr inbounds [100 x i8], [100 x i8]* %5, i64 0, i64 0
  %40 = load i8, i8* %39, align 16
  %41 = sext i8 %40 to i32
  %42 = icmp eq i32 %41, 95
  br i1 %42, label %43, label %69

43:                                               ; preds = %38, %33, %23
  store i32 0, i32* %6, align 4
  br label %44

44:                                               ; preds = %58, %43
  %45 = load i32, i32* %6, align 4
  %46 = sext i32 %45 to i64
  %47 = getelementptr inbounds [100 x i8], [100 x i8]* %5, i64 0, i64 %46
  %48 = load i8, i8* %47, align 1
  %49 = sext i8 %48 to i32
  %50 = icmp ne i32 %49, 0
  br i1 %50, label %51, label %61

51:                                               ; preds = %44
  %52 = load i32, i32* %6, align 4
  %53 = sext i32 %52 to i64
  %54 = getelementptr inbounds [100 x i8], [100 x i8]* %5, i64 0, i64 %53
  %55 = load i8, i8* %54, align 1
  %56 = load i32, i32* %4, align 4
  %57 = call i32 @panduan(i8 signext %55, i32 %56)
  store i32 %57, i32* %4, align 4
  br label %58

58:                                               ; preds = %51
  %59 = load i32, i32* %6, align 4
  %60 = add nsw i32 %59, 1
  store i32 %60, i32* %6, align 4
  br label %44

61:                                               ; preds = %44
  %62 = load i32, i32* %4, align 4
  %63 = icmp eq i32 %62, 1
  br i1 %63, label %64, label %66

64:                                               ; preds = %61
  %65 = call i32 (i8*, ...) @printf(i8* getelementptr inbounds ([3 x i8], [3 x i8]* @.str.1, i64 0, i64 0))
  br label %68

66:                                               ; preds = %61
  %67 = call i32 (i8*, ...) @printf(i8* getelementptr inbounds ([3 x i8], [3 x i8]* @.str.2, i64 0, i64 0))
  br label %68

68:                                               ; preds = %66, %64
  store i32 1, i32* %4, align 4
  br label %71

69:                                               ; preds = %38
  %70 = call i32 (i8*, ...) @printf(i8* getelementptr inbounds ([3 x i8], [3 x i8]* @.str.2, i64 0, i64 0))
  br label %71

71:                                               ; preds = %69, %68
  br label %72

72:                                               ; preds = %71, %17
  %73 = load i32, i32* %3, align 4
  %74 = add nsw i32 %73, 1
  store i32 %74, i32* %3, align 4
  br label %8

75:                                               ; preds = %8
  ret i32 0
}

declare dso_local i32 @__isoc99_scanf(i8*, ...) #1

declare dso_local i32 @gets(...) #1

declare dso_local i32 @printf(i8*, ...) #1


!llvm.module.flags = !{!0}
!llvm.ident = !{!1}

!0 = !{i32 1, !"wchar_size", i32 4}
!1 = !{!"clang version 10.0.0-4ubuntu1 "}
