; ModuleID = 'source-C-CXX/57/280.c'
source_filename = "source-C-CXX/57/280.c"
target datalayout = "e-m:e-p270:32:32-p271:32:32-p272:64:64-i64:64-f80:128-n8:16:32:64-S128"
target triple = "x86_64-pc-linux-gnu"

@.str = private unnamed_addr constant [3 x i8] c"%d\00", align 1
@str.3 = private unnamed_addr constant [2 x i8] c"0\00", align 1
@str.4 = private unnamed_addr constant [2 x i8] c"1\00", align 1

; Function Attrs: mustprogress nofree norecurse nosync nounwind readnone sspstrong uwtable willreturn
define dso_local i32 @panduan(i8 signext %0, i32 %1) local_unnamed_addr #0 {
  %3 = and i8 %0, -33
  %4 = add i8 %3, -65
  %5 = icmp ult i8 %4, 26
  br i1 %5, label %12, label %6

6:                                                ; preds = %2
  %7 = add i8 %0, -48
  %8 = icmp ult i8 %7, 10
  %9 = icmp eq i8 %0, 95
  %10 = or i1 %9, %8
  %11 = select i1 %10, i32 %1, i32 0
  br label %12

12:                                               ; preds = %6, %2
  %13 = phi i32 [ %1, %2 ], [ %11, %6 ]
  ret i32 %13
}

; Function Attrs: nounwind sspstrong uwtable
define dso_local i32 @main() local_unnamed_addr #1 {
  %1 = alloca i32, align 4
  %2 = alloca [100 x i8], align 16
  %3 = bitcast i32* %1 to i8*
  call void @llvm.lifetime.start.p0i8(i64 4, i8* nonnull %3) #6
  %4 = call i32 (i8*, ...) @__isoc99_scanf(i8* getelementptr inbounds ([3 x i8], [3 x i8]* @.str, i64 0, i64 0), i32* nonnull %1)
  %5 = getelementptr inbounds [100 x i8], [100 x i8]* %2, i64 0, i64 0
  call void @llvm.lifetime.start.p0i8(i64 100, i8* nonnull %5) #6
  %6 = load i32, i32* %1, align 4, !tbaa !5
  %7 = icmp slt i32 %6, 0
  br i1 %7, label %51, label %8

8:                                                ; preds = %0, %47
  %9 = phi i32 [ %48, %47 ], [ 0, %0 ]
  %10 = call i32 (i8*, ...) bitcast (i32 (...)* @gets to i32 (i8*, ...)*)(i8* nonnull %5) #6
  %11 = icmp eq i32 %9, 0
  br i1 %11, label %47, label %12

12:                                               ; preds = %8
  %13 = load i8, i8* %5, align 16, !tbaa !9
  %14 = add i8 %13, -97
  %15 = icmp ult i8 %14, 26
  br i1 %15, label %21, label %16

16:                                               ; preds = %12
  %17 = add i8 %13, -65
  %18 = icmp ult i8 %17, 26
  %19 = icmp eq i8 %13, 95
  %20 = or i1 %19, %18
  br i1 %20, label %21, label %44

21:                                               ; preds = %12, %16
  br label %25

22:                                               ; preds = %38
  %23 = icmp eq i32 %39, 1
  %24 = select i1 %23, i8* getelementptr inbounds ([2 x i8], [2 x i8]* @str.4, i64 0, i64 0), i8* getelementptr inbounds ([2 x i8], [2 x i8]* @str.3, i64 0, i64 0)
  br label %44

25:                                               ; preds = %21, %38
  %26 = phi i64 [ %40, %38 ], [ 0, %21 ]
  %27 = phi i8 [ %42, %38 ], [ %13, %21 ]
  %28 = phi i32 [ %39, %38 ], [ 1, %21 ]
  %29 = and i8 %27, -33
  %30 = add i8 %29, -65
  %31 = icmp ult i8 %30, 26
  br i1 %31, label %38, label %32

32:                                               ; preds = %25
  %33 = add i8 %27, -48
  %34 = icmp ult i8 %33, 10
  %35 = icmp eq i8 %27, 95
  %36 = or i1 %35, %34
  %37 = select i1 %36, i32 %28, i32 0
  br label %38

38:                                               ; preds = %25, %32
  %39 = phi i32 [ %28, %25 ], [ %37, %32 ]
  %40 = add nuw i64 %26, 1
  %41 = getelementptr inbounds [100 x i8], [100 x i8]* %2, i64 0, i64 %40
  %42 = load i8, i8* %41, align 1, !tbaa !9
  %43 = icmp eq i8 %42, 0
  br i1 %43, label %22, label %25, !llvm.loop !10

44:                                               ; preds = %16, %22
  %45 = phi i8* [ %24, %22 ], [ getelementptr inbounds ([2 x i8], [2 x i8]* @str.3, i64 0, i64 0), %16 ]
  %46 = call i32 @puts(i8* nonnull dereferenceable(1) %45)
  br label %47

47:                                               ; preds = %44, %8
  %48 = add nuw nsw i32 %9, 1
  %49 = load i32, i32* %1, align 4, !tbaa !5
  %50 = icmp slt i32 %9, %49
  br i1 %50, label %8, label %51, !llvm.loop !12

51:                                               ; preds = %47, %0
  call void @llvm.lifetime.end.p0i8(i64 100, i8* nonnull %5) #6
  call void @llvm.lifetime.end.p0i8(i64 4, i8* nonnull %3) #6
  ret i32 0
}

; Function Attrs: argmemonly mustprogress nofree nosync nounwind willreturn
declare void @llvm.lifetime.start.p0i8(i64 immarg, i8* nocapture) #2

; Function Attrs: nofree nounwind
declare noundef i32 @__isoc99_scanf(i8* nocapture noundef readonly, ...) local_unnamed_addr #3

declare i32 @gets(...) local_unnamed_addr #4

; Function Attrs: argmemonly mustprogress nofree nosync nounwind willreturn
declare void @llvm.lifetime.end.p0i8(i64 immarg, i8* nocapture) #2

; Function Attrs: nofree nounwind
declare noundef i32 @puts(i8* nocapture noundef readonly) local_unnamed_addr #5


!llvm.module.flags = !{!0, !1, !2, !3}
!llvm.ident = !{!4}

!0 = !{i32 1, !"wchar_size", i32 4}
!1 = !{i32 7, !"PIC Level", i32 2}
!2 = !{i32 7, !"PIE Level", i32 2}
!3 = !{i32 7, !"uwtable", i32 1}
!4 = !{!"clang version 13.0.0"}
!5 = !{!6, !6, i64 0}
!6 = !{!"int", !7, i64 0}
!7 = !{!"omnipotent char", !8, i64 0}
!8 = !{!"Simple C/C++ TBAA"}
!9 = !{!7, !7, i64 0}
!10 = distinct !{!10, !11}
!11 = !{!"llvm.loop.mustprogress"}
!12 = distinct !{!12, !11}
